; Function Attrs: nounwind uwtable
define dso_local nonnull ptr @config_enum_lookup_by_value(ptr noundef readonly captures(none) %0, i32 noundef %1) local_unnamed_addr #0 {
  %3 = getelementptr inbounds nuw i8, ptr %0, i64 160
  %4 = load ptr, ptr %3, align 8
  %.not11 = icmp eq ptr %4, null
  br i1 %.not11, label %.critedge, label %.lr.ph.preheader

.lr.ph.preheader:                                 ; preds = %2
  %5 = load ptr, ptr %4, align 8
  %.not1017 = icmp eq ptr %5, null
  br i1 %.not1017, label %.critedge, label %.lr.ph19

.lr.ph:                                           ; preds = %.lr.ph19
  %6 = getelementptr inbounds nuw i8, ptr %.01218, i64 16
  %7 = load ptr, ptr %6, align 8
  %.not10 = icmp eq ptr %7, null
  br i1 %.not10, label %.critedge, label %.lr.ph19

.lr.ph19:                                         ; preds = %.lr.ph.preheader, %.lr.ph
  %8 = phi ptr [ %7, %.lr.ph ], [ %5, %.lr.ph.preheader ]
  %.01218 = phi ptr [ %6, %.lr.ph ], [ %4, %.lr.ph.preheader ]
  %9 = getelementptr inbounds nuw i8, ptr %.01218, i64 8
  %10 = load i32, ptr %9, align 8
  %11 = icmp eq i32 %10, %1
  br i1 %11, label %12, label %.lr.ph

12:                                               ; preds = %.lr.ph19
  ret ptr %8

.critedge:                                        ; preds = %.lr.ph, %.lr.ph.preheader, %2
  %13 = tail call zeroext i1 @errstart_cold(i32 noundef 21, ptr noundef null) #31
  tail call void @llvm.assume(i1 %13)
  %14 = load ptr, ptr %0, align 8
  %15 = tail call i32 (ptr, ...) @errmsg_internal(ptr noundef nonnull @.str.55, i32 noundef %1, ptr noundef %14) #29
  tail call void @errfinish(ptr noundef nonnull @.str.3, i32 noundef 3034, ptr noundef nonnull @__func__.config_enum_lookup_by_value) #29
  unreachable
}